; ModuleID = 'source-C-CXX/25/690.c'
source_filename = "source-C-CXX/25/690.c"
target datalayout = "e-m:e-p270:32:32-p271:32:32-p272:64:64-i64:64-f80:128-n8:16:32:64-S128"
target triple = "x86_64-pc-linux-gnu"

@.str.1 = private unnamed_addr constant [4 x i8] c"%c \00", align 1

; Function Attrs: nounwind sspstrong uwtable
define dso_local i32 @main(i32 %0, i8** nocapture readnone %1) local_unnamed_addr #0 {
  %3 = alloca [101 x i8], align 16
  %4 = getelementptr inbounds [101 x i8], [101 x i8]* %3, i64 0, i64 0
  call void @llvm.lifetime.start.p0i8(i64 101, i8* nonnull %4) #6
  %5 = call i32 (i8*, ...) bitcast (i32 (...)* @gets to i32 (i8*, ...)*)(i8* nonnull %4) #6
  %6 = call i64 @strlen(i8* noundef nonnull %4) #7
  %7 = icmp eq i64 %6, 1
  br i1 %7, label %33, label %8

8:                                                ; preds = %2, %29
  %9 = phi i64 [ %13, %29 ], [ 0, %2 ]
  %10 = getelementptr inbounds [101 x i8], [101 x i8]* %3, i64 0, i64 %9
  %11 = load i8, i8* %10, align 1, !tbaa !5
  %12 = icmp eq i8 %11, 32
  %13 = add nuw i64 %9, 1
  br i1 %12, label %29, label %14

14:                                               ; preds = %8
  %15 = getelementptr inbounds [101 x i8], [101 x i8]* %3, i64 0, i64 %13
  %16 = load i8, i8* %15, align 1, !tbaa !5
  %17 = icmp eq i8 %16, 32
  br i1 %17, label %25, label %18

18:                                               ; preds = %14
  %19 = sext i8 %11 to i32
  %20 = call i32 @putchar(i32 %19)
  %21 = load i8, i8* %15, align 1, !tbaa !5
  %22 = icmp eq i8 %21, 32
  br i1 %22, label %23, label %29

23:                                               ; preds = %18
  %24 = load i8, i8* %10, align 1, !tbaa !5
  br label %25

25:                                               ; preds = %23, %14
  %26 = phi i8 [ %24, %23 ], [ %11, %14 ]
  %27 = sext i8 %26 to i32
  %28 = call i32 (i8*, ...) @printf(i8* nonnull dereferenceable(1) getelementptr inbounds ([4 x i8], [4 x i8]* @.str.1, i64 0, i64 0), i32 %27)
  br label %29

29:                                               ; preds = %8, %18, %25
  %30 = call i64 @strlen(i8* noundef nonnull %4) #7
  %31 = add i64 %30, -1
  %32 = icmp ugt i64 %31, %13
  br i1 %32, label %8, label %33, !llvm.loop !8

33:                                               ; preds = %29, %2
  %34 = phi i64 [ 0, %2 ], [ %31, %29 ]
  %35 = getelementptr inbounds [101 x i8], [101 x i8]* %3, i64 0, i64 %34
  %36 = load i8, i8* %35, align 1, !tbaa !5
  %37 = sext i8 %36 to i32
  %38 = call i32 @putchar(i32 %37)
  call void @llvm.lifetime.end.p0i8(i64 101, i8* nonnull %4) #6
  ret i32 0
}

; Function Attrs: argmemonly mustprogress nofree nosync nounwind willreturn
declare void @llvm.lifetime.start.p0i8(i64 immarg, i8* nocapture) #1

declare i32 @gets(...) local_unnamed_addr #2

; Function Attrs: argmemonly mustprogress nofree nounwind readonly willreturn
declare i64 @strlen(i8* nocapture) local_unnamed_addr #3

; Function Attrs: nofree nounwind
declare noundef i32 @printf(i8* nocapture noundef readonly, ...) local_unnamed_addr #4

; Function Attrs: argmemonly mustprogress nofree nosync nounwind willreturn
declare void @llvm.lifetime.end.p0i8(i64 immarg, i8* nocapture) #1

; Function Attrs: nofree nounwind
declare noundef i32 @putchar(i32 noundef) local_unnamed_addr #5


!llvm.module.flags = !{!0, !1, !2, !3}
!llvm.ident = !{!4}

!0 = !{i32 1, !"wchar_size", i32 4}
!1 = !{i32 7, !"PIC Level", i32 2}
!2 = !{i32 7, !"PIE Level", i32 2}
!3 = !{i32 7, !"uwtable", i32 1}
!4 = !{!"clang version 13.0.0"}
!5 = !{!6, !6, i64 0}
!6 = !{!"omnipotent char", !7, i64 0}
!7 = !{!"Simple C/C++ TBAA"}
!8 = distinct !{!8, !9}
!9 = !{!"llvm.loop.mustprogress"}
